target datalayout = "e-m:e-p270:32:32-p271:32:32-p272:64:64-i64:64-i128:128-f80:128-n8:16:32:64-S128"
target triple = "x86_64-unknown-linux-gnu"

%struct.hiredisAllocFuncs = type { ptr, ptr, ptr, ptr, ptr }
%struct.redisAsyncContext = type { %struct.redisContext, i32, ptr, ptr, ptr, %struct.anon.2, ptr, ptr, ptr, %struct.redisCallbackList, ptr, i64, %struct.anon.3, ptr }
%struct.redisContext = type { ptr, i32, [128 x i8], i32, i32, ptr, ptr, i32, ptr, ptr, %struct.anon.0, %struct.anon.1, ptr, i64, ptr, ptr, ptr, ptr }
%struct.anon.0 = type { ptr, ptr, i32 }
%struct.anon.1 = type { ptr }
%struct.anon.2 = type { ptr, ptr, ptr, ptr, ptr, ptr, ptr }
%struct.redisCallbackList = type { ptr, ptr }
%struct.anon.3 = type { %struct.redisCallbackList, ptr, ptr, i32 }
%struct.timeval = type { i64, i64 }

@.str.2 = private unnamed_addr constant [14 x i8] c"Out of memory\00", align 1
@hiredisAllocFns = external global %struct.hiredisAllocFuncs, align 8

; Function Attrs: nounwind uwtable
define internal void @__redisAsyncCopyError(ptr noundef %ac) #0 {
entry:
  %ac.addr = alloca ptr, align 8
  %c = alloca ptr, align 8
  store ptr %ac, ptr %ac.addr, align 8
  %0 = load ptr, ptr %ac.addr, align 8
  %tobool = icmp ne ptr %0, null
  br i1 %tobool, label %if.end, label %if.then

if.then:                                          ; preds = %entry
  br label %return

if.end:                                           ; preds = %entry
  %1 = load ptr, ptr %ac.addr, align 8
  %c1 = getelementptr inbounds %struct.redisAsyncContext, ptr %1, i32 0, i32 0
  store ptr %c1, ptr %c, align 8
  %2 = load ptr, ptr %c, align 8
  %err = getelementptr inbounds %struct.redisContext, ptr %2, i32 0, i32 1
  %3 = load i32, ptr %err, align 8
  %4 = load ptr, ptr %ac.addr, align 8
  %err2 = getelementptr inbounds %struct.redisAsyncContext, ptr %4, i32 0, i32 1
  store i32 %3, ptr %err2, align 8
  %5 = load ptr, ptr %c, align 8
  %errstr = getelementptr inbounds %struct.redisContext, ptr %5, i32 0, i32 2
  %arraydecay = getelementptr inbounds [128 x i8], ptr %errstr, i64 0, i64 0
  %6 = load ptr, ptr %ac.addr, align 8
  %errstr3 = getelementptr inbounds %struct.redisAsyncContext, ptr %6, i32 0, i32 2
  store ptr %arraydecay, ptr %errstr3, align 8
  br label %return

return:                                           ; preds = %if.end, %if.then
  ret void
}

; Function Attrs: nounwind uwtable
define internal ptr @hi_calloc(i64 noundef %nmemb, i64 noundef %size) #0 {
entry:
  %retval = alloca ptr, align 8
  %nmemb.addr = alloca i64, align 8
  %size.addr = alloca i64, align 8
  store i64 %nmemb, ptr %nmemb.addr, align 8
  store i64 %size, ptr %size.addr, align 8
  %0 = load i64, ptr %size.addr, align 8
  %div = udiv i64 -1, %0
  %1 = load i64, ptr %nmemb.addr, align 8
  %cmp = icmp ult i64 %div, %1
  br i1 %cmp, label %if.then, label %if.end

if.then:                                          ; preds = %entry
  store ptr null, ptr %retval, align 8
  br label %return

if.end:                                           ; preds = %entry
  %2 = load ptr, ptr getelementptr inbounds (%struct.hiredisAllocFuncs, ptr @hiredisAllocFns, i32 0, i32 1), align 8
  %3 = load i64, ptr %nmemb.addr, align 8
  %4 = load i64, ptr %size.addr, align 8
  %call = call ptr %2(i64 noundef %3, i64 noundef %4)
  store ptr %call, ptr %retval, align 8
  br label %return

return:                                           ; preds = %if.end, %if.then
  %5 = load ptr, ptr %retval, align 8
  ret ptr %5
}

; Function Attrs: nounwind uwtable
define i32 @redisAsyncSetTimeout(ptr noundef %ac, i64 %tv.coerce0, i64 %tv.coerce1) #0 {
entry:
  %retval = alloca i32, align 4
  %tv = alloca %struct.timeval, align 8
  %ac.addr = alloca ptr, align 8
  %0 = getelementptr inbounds { i64, i64 }, ptr %tv, i32 0, i32 0
  store i64 %tv.coerce0, ptr %0, align 8
  %1 = getelementptr inbounds { i64, i64 }, ptr %tv, i32 0, i32 1
  store i64 %tv.coerce1, ptr %1, align 8
  store ptr %ac, ptr %ac.addr, align 8
  %2 = load ptr, ptr %ac.addr, align 8
  %c = getelementptr inbounds %struct.redisAsyncContext, ptr %2, i32 0, i32 0
  %command_timeout = getelementptr inbounds %struct.redisContext, ptr %c, i32 0, i32 9
  %3 = load ptr, ptr %command_timeout, align 8
  %tobool = icmp ne ptr %3, null
  br i1 %tobool, label %if.end7, label %if.then

if.then:                                          ; preds = %entry
  %call = call ptr @hi_calloc(i64 noundef 1, i64 noundef 16)
  %4 = load ptr, ptr %ac.addr, align 8
  %c1 = getelementptr inbounds %struct.redisAsyncContext, ptr %4, i32 0, i32 0
  %command_timeout2 = getelementptr inbounds %struct.redisContext, ptr %c1, i32 0, i32 9
  store ptr %call, ptr %command_timeout2, align 8
  %5 = load ptr, ptr %ac.addr, align 8
  %c3 = getelementptr inbounds %struct.redisAsyncContext, ptr %5, i32 0, i32 0
  %command_timeout4 = getelementptr inbounds %struct.redisContext, ptr %c3, i32 0, i32 9
  %6 = load ptr, ptr %command_timeout4, align 8
  %cmp = icmp eq ptr %6, null
  br i1 %cmp, label %if.then5, label %if.end

if.then5:                                         ; preds = %if.then
  %7 = load ptr, ptr %ac.addr, align 8
  %c6 = getelementptr inbounds %struct.redisAsyncContext, ptr %7, i32 0, i32 0
  call void @__redisSetError(ptr noundef %c6, i32 noundef 5, ptr noundef @.str.2)
  %8 = load ptr, ptr %ac.addr, align 8
  call void @__redisAsyncCopyError(ptr noundef %8)
  store i32 -1, ptr %retval, align 4
  br label %return

if.end:                                           ; preds = %if.then
  br label %if.end7

if.end7:                                          ; preds = %if.end, %entry
  %tv_sec = getelementptr inbounds %struct.timeval, ptr %tv, i32 0, i32 0
  %9 = load i64, ptr %tv_sec, align 8
  %10 = load ptr, ptr %ac.addr, align 8
  %c8 = getelementptr inbounds %struct.redisAsyncContext, ptr %10, i32 0, i32 0
  %command_timeout9 = getelementptr inbounds %struct.redisContext, ptr %c8, i32 0, i32 9
  %11 = load ptr, ptr %command_timeout9, align 8
  %tv_sec10 = getelementptr inbounds %struct.timeval, ptr %11, i32 0, i32 0
  %12 = load i64, ptr %tv_sec10, align 8
  %cmp11 = icmp ne i64 %9, %12
  br i1 %cmp11, label %if.then16, label %lor.lhs.false

lor.lhs.false:                                    ; preds = %if.end7
  %tv_usec = getelementptr inbounds %struct.timeval, ptr %tv, i32 0, i32 1
  %13 = load i64, ptr %tv_usec, align 8
  %14 = load ptr, ptr %ac.addr, align 8
  %c12 = getelementptr inbounds %struct.redisAsyncContext, ptr %14, i32 0, i32 0
  %command_timeout13 = getelementptr inbounds %struct.redisContext, ptr %c12, i32 0, i32 9
  %15 = load ptr, ptr %command_timeout13, align 8
  %tv_usec14 = getelementptr inbounds %struct.timeval, ptr %15, i32 0, i32 1
  %16 = load i64, ptr %tv_usec14, align 8
  %cmp15 = icmp ne i64 %13, %16
  br i1 %cmp15, label %if.then16, label %if.end19

if.then16:                                        ; preds = %lor.lhs.false, %if.end7
  %17 = load ptr, ptr %ac.addr, align 8
  %c17 = getelementptr inbounds %struct.redisAsyncContext, ptr %17, i32 0, i32 0
  %command_timeout18 = getelementptr inbounds %struct.redisContext, ptr %c17, i32 0, i32 9
  %18 = load ptr, ptr %command_timeout18, align 8
  call void @llvm.memcpy.p0.p0.i64(ptr align 8 %18, ptr align 8 %tv, i64 16, i1 false)
  br label %if.end19

if.end19:                                         ; preds = %if.then16, %lor.lhs.false
  store i32 0, ptr %retval, align 4
  br label %return

return:                                           ; preds = %if.end19, %if.then5
  %19 = load i32, ptr %retval, align 4
  ret i32 %19
}