; Function Attrs: nounwind uwtable
define noundef i32 @redisAsyncSetTimeout(ptr noundef %ac, i64 %tv.coerce0, i64 %tv.coerce1) local_unnamed_addr #0 {
entry:
  %command_timeout = getelementptr inbounds i8, ptr %ac, i64 184
  %0 = load ptr, ptr %command_timeout, align 8
  %tobool.not = icmp eq ptr %0, null
  br i1 %tobool.not, label %if.then, label %if.end7

if.then:                                          ; preds = %entry
  %1 = load ptr, ptr getelementptr inbounds (%struct.hiredisAllocFuncs, ptr @hiredisAllocFns, i64 0, i32 1), align 8
  %call.i = tail call ptr %1(i64 noundef 1, i64 noundef 16) #14
  store ptr %call.i, ptr %command_timeout, align 8
  %cmp = icmp eq ptr %call.i, null
  br i1 %cmp, label %__redisAsyncCopyError.exit, label %if.end7

__redisAsyncCopyError.exit:                       ; preds = %if.then
  tail call void @__redisSetError(ptr noundef nonnull %ac, i32 noundef 5, ptr noundef nonnull @.str.2) #14
  %err.i = getelementptr inbounds i8, ptr %ac, i64 8
  %2 = load i32, ptr %err.i, align 8
  %err2.i = getelementptr inbounds i8, ptr %ac, i64 272
  store i32 %2, ptr %err2.i, align 8
  %errstr.i = getelementptr inbounds i8, ptr %ac, i64 12
  %errstr3.i = getelementptr inbounds i8, ptr %ac, i64 280
  store ptr %errstr.i, ptr %errstr3.i, align 8
  br label %return

if.end7:                                          ; preds = %if.then, %entry
  %3 = phi ptr [ %call.i, %if.then ], [ %0, %entry ]
  %4 = load i64, ptr %3, align 8
  %cmp11.not = icmp eq i64 %4, %tv.coerce0
  br i1 %cmp11.not, label %lor.lhs.false, label %if.then16

lor.lhs.false:                                    ; preds = %if.end7
  %tv_usec14 = getelementptr inbounds i8, ptr %3, i64 8
  %5 = load i64, ptr %tv_usec14, align 8
  %cmp15.not = icmp eq i64 %5, %tv.coerce1
  br i1 %cmp15.not, label %return, label %if.then16

if.then16:                                        ; preds = %lor.lhs.false, %if.end7
  store i64 %tv.coerce0, ptr %3, align 8
  %tv.sroa.3.0..sroa_idx = getelementptr inbounds i8, ptr %3, i64 8
  store i64 %tv.coerce1, ptr %tv.sroa.3.0..sroa_idx, align 8
  br label %return

return:                                           ; preds = %lor.lhs.false, %if.then16, %__redisAsyncCopyError.exit
  %retval.0 = phi i32 [ -1, %__redisAsyncCopyError.exit ], [ 0, %if.then16 ], [ 0, %lor.lhs.false ]
  ret i32 %retval.0
}